myApp:     file format elf64-x86-64


Disassembly of section .init:

0000000000000708 <_init>:
 708:	48 83 ec 08          	sub    $0x8,%rsp
 70c:	48 8b 05 d5 08 20 00 	mov    0x2008d5(%rip),%rax        # 200fe8 <__gmon_start__>
 713:	48 85 c0             	test   %rax,%rax
 716:	74 02                	je     71a <_init+0x12>
 718:	ff d0                	callq  *%rax
 71a:	48 83 c4 08          	add    $0x8,%rsp
 71e:	c3                   	retq   

Disassembly of section .plt:

0000000000000720 <.plt>:
 720:	ff 35 62 08 20 00    	pushq  0x200862(%rip)        # 200f88 <_GLOBAL_OFFSET_TABLE_+0x8>
 726:	ff 25 64 08 20 00    	jmpq   *0x200864(%rip)        # 200f90 <_GLOBAL_OFFSET_TABLE_+0x10>
 72c:	0f 1f 40 00          	nopl   0x0(%rax)

0000000000000730 <free@plt>:
 730:	ff 25 62 08 20 00    	jmpq   *0x200862(%rip)        # 200f98 <free@GLIBC_2.2.5>
 736:	68 00 00 00 00       	pushq  $0x0
 73b:	e9 e0 ff ff ff       	jmpq   720 <.plt>

0000000000000740 <puts@plt>:
 740:	ff 25 5a 08 20 00    	jmpq   *0x20085a(%rip)        # 200fa0 <puts@GLIBC_2.2.5>
 746:	68 01 00 00 00       	pushq  $0x1
 74b:	e9 d0 ff ff ff       	jmpq   720 <.plt>

0000000000000750 <omp_get_thread_num@plt>:
 750:	ff 25 52 08 20 00    	jmpq   *0x200852(%rip)        # 200fa8 <omp_get_thread_num@OMP_1.0>
 756:	68 02 00 00 00       	pushq  $0x2
 75b:	e9 c0 ff ff ff       	jmpq   720 <.plt>

0000000000000760 <__stack_chk_fail@plt>:
 760:	ff 25 4a 08 20 00    	jmpq   *0x20084a(%rip)        # 200fb0 <__stack_chk_fail@GLIBC_2.4>
 766:	68 03 00 00 00       	pushq  $0x3
 76b:	e9 b0 ff ff ff       	jmpq   720 <.plt>

0000000000000770 <printf@plt>:
 770:	ff 25 42 08 20 00    	jmpq   *0x200842(%rip)        # 200fb8 <printf@GLIBC_2.2.5>
 776:	68 04 00 00 00       	pushq  $0x4
 77b:	e9 a0 ff ff ff       	jmpq   720 <.plt>

0000000000000780 <omp_get_num_threads@plt>:
 780:	ff 25 3a 08 20 00    	jmpq   *0x20083a(%rip)        # 200fc0 <omp_get_num_threads@OMP_1.0>
 786:	68 05 00 00 00       	pushq  $0x5
 78b:	e9 90 ff ff ff       	jmpq   720 <.plt>

0000000000000790 <malloc@plt>:
 790:	ff 25 32 08 20 00    	jmpq   *0x200832(%rip)        # 200fc8 <malloc@GLIBC_2.2.5>
 796:	68 06 00 00 00       	pushq  $0x6
 79b:	e9 80 ff ff ff       	jmpq   720 <.plt>

00000000000007a0 <GOMP_parallel@plt>:
 7a0:	ff 25 2a 08 20 00    	jmpq   *0x20082a(%rip)        # 200fd0 <GOMP_parallel@GOMP_4.0>
 7a6:	68 07 00 00 00       	pushq  $0x7
 7ab:	e9 70 ff ff ff       	jmpq   720 <.plt>

Disassembly of section .plt.got:

00000000000007b0 <__cxa_finalize@plt>:
 7b0:	ff 25 42 08 20 00    	jmpq   *0x200842(%rip)        # 200ff8 <__cxa_finalize@GLIBC_2.2.5>
 7b6:	66 90                	xchg   %ax,%ax

Disassembly of section .text:

00000000000007c0 <_start>:
 7c0:	31 ed                	xor    %ebp,%ebp
 7c2:	49 89 d1             	mov    %rdx,%r9
 7c5:	5e                   	pop    %rsi
 7c6:	48 89 e2             	mov    %rsp,%rdx
 7c9:	48 83 e4 f0          	and    $0xfffffffffffffff0,%rsp
 7cd:	50                   	push   %rax
 7ce:	54                   	push   %rsp
 7cf:	4c 8d 05 9a 03 00 00 	lea    0x39a(%rip),%r8        # b70 <__libc_csu_fini>
 7d6:	48 8d 0d 23 03 00 00 	lea    0x323(%rip),%rcx        # b00 <__libc_csu_init>
 7dd:	48 8d 3d e6 00 00 00 	lea    0xe6(%rip),%rdi        # 8ca <main>
 7e4:	ff 15 f6 07 20 00    	callq  *0x2007f6(%rip)        # 200fe0 <__libc_start_main@GLIBC_2.2.5>
 7ea:	f4                   	hlt    
 7eb:	0f 1f 44 00 00       	nopl   0x0(%rax,%rax,1)

00000000000007f0 <deregister_tm_clones>:
 7f0:	48 8d 3d f9 0a 20 00 	lea    0x200af9(%rip),%rdi        # 2012f0 <__TMC_END__>
 7f7:	55                   	push   %rbp
 7f8:	48 8d 05 f1 0a 20 00 	lea    0x200af1(%rip),%rax        # 2012f0 <__TMC_END__>
 7ff:	48 39 f8             	cmp    %rdi,%rax
 802:	48 89 e5             	mov    %rsp,%rbp
 805:	74 19                	je     820 <deregister_tm_clones+0x30>
 807:	48 8b 05 ca 07 20 00 	mov    0x2007ca(%rip),%rax        # 200fd8 <_ITM_deregisterTMCloneTable>
 80e:	48 85 c0             	test   %rax,%rax
 811:	74 0d                	je     820 <deregister_tm_clones+0x30>
 813:	5d                   	pop    %rbp
 814:	ff e0                	jmpq   *%rax
 816:	66 2e 0f 1f 84 00 00 	nopw   %cs:0x0(%rax,%rax,1)
 81d:	00 00 00 
 820:	5d                   	pop    %rbp
 821:	c3                   	retq   
 822:	0f 1f 40 00          	nopl   0x0(%rax)
 826:	66 2e 0f 1f 84 00 00 	nopw   %cs:0x0(%rax,%rax,1)
 82d:	00 00 00 

0000000000000830 <register_tm_clones>:
 830:	48 8d 3d b9 0a 20 00 	lea    0x200ab9(%rip),%rdi        # 2012f0 <__TMC_END__>
 837:	48 8d 35 b2 0a 20 00 	lea    0x200ab2(%rip),%rsi        # 2012f0 <__TMC_END__>
 83e:	55                   	push   %rbp
 83f:	48 29 fe             	sub    %rdi,%rsi
 842:	48 89 e5             	mov    %rsp,%rbp
 845:	48 c1 fe 03          	sar    $0x3,%rsi
 849:	48 89 f0             	mov    %rsi,%rax
 84c:	48 c1 e8 3f          	shr    $0x3f,%rax
 850:	48 01 c6             	add    %rax,%rsi
 853:	48 d1 fe             	sar    %rsi
 856:	74 18                	je     870 <register_tm_clones+0x40>
 858:	48 8b 05 91 07 20 00 	mov    0x200791(%rip),%rax        # 200ff0 <_ITM_registerTMCloneTable>
 85f:	48 85 c0             	test   %rax,%rax
 862:	74 0c                	je     870 <register_tm_clones+0x40>
 864:	5d                   	pop    %rbp
 865:	ff e0                	jmpq   *%rax
 867:	66 0f 1f 84 00 00 00 	nopw   0x0(%rax,%rax,1)
 86e:	00 00 
 870:	5d                   	pop    %rbp
 871:	c3                   	retq   
 872:	0f 1f 40 00          	nopl   0x0(%rax)
 876:	66 2e 0f 1f 84 00 00 	nopw   %cs:0x0(%rax,%rax,1)
 87d:	00 00 00 

0000000000000880 <__do_global_dtors_aux>:
 880:	80 3d 69 0a 20 00 00 	cmpb   $0x0,0x200a69(%rip)        # 2012f0 <__TMC_END__>
 887:	75 2f                	jne    8b8 <__do_global_dtors_aux+0x38>
 889:	48 83 3d 67 07 20 00 	cmpq   $0x0,0x200767(%rip)        # 200ff8 <__cxa_finalize@GLIBC_2.2.5>
 890:	00 
 891:	55                   	push   %rbp
 892:	48 89 e5             	mov    %rsp,%rbp
 895:	74 0c                	je     8a3 <__do_global_dtors_aux+0x23>
 897:	48 8b 3d 6a 07 20 00 	mov    0x20076a(%rip),%rdi        # 201008 <__dso_handle>
 89e:	e8 0d ff ff ff       	callq  7b0 <__cxa_finalize@plt>
 8a3:	e8 48 ff ff ff       	callq  7f0 <deregister_tm_clones>
 8a8:	c6 05 41 0a 20 00 01 	movb   $0x1,0x200a41(%rip)        # 2012f0 <__TMC_END__>
 8af:	5d                   	pop    %rbp
 8b0:	c3                   	retq   
 8b1:	0f 1f 80 00 00 00 00 	nopl   0x0(%rax)
 8b8:	f3 c3                	repz retq 
 8ba:	66 0f 1f 44 00 00    	nopw   0x0(%rax,%rax,1)

00000000000008c0 <frame_dummy>:
 8c0:	55                   	push   %rbp
 8c1:	48 89 e5             	mov    %rsp,%rbp
 8c4:	5d                   	pop    %rbp
 8c5:	e9 66 ff ff ff       	jmpq   830 <register_tm_clones>

00000000000008ca <main>:
 8ca:	55                   	push   %rbp
 8cb:	48 89 e5             	mov    %rsp,%rbp
 8ce:	48 83 ec 60          	sub    $0x60,%rsp
 8d2:	89 7d bc             	mov    %edi,-0x44(%rbp)
 8d5:	48 89 75 b0          	mov    %rsi,-0x50(%rbp)
 8d9:	64 48 8b 04 25 28 00 	mov    %fs:0x28,%rax
 8e0:	00 00 
 8e2:	48 89 45 f8          	mov    %rax,-0x8(%rbp)
 8e6:	31 c0                	xor    %eax,%eax
 8e8:	bf 50 3f 00 00       	mov    $0x3f50,%edi
 8ed:	e8 9e fe ff ff       	callq  790 <malloc@plt>
 8f2:	48 89 45 c8          	mov    %rax,-0x38(%rbp)
 8f6:	48 83 7d c8 00       	cmpq   $0x0,-0x38(%rbp)
 8fb:	75 16                	jne    913 <main+0x49>
 8fd:	48 8d 3d 84 02 00 00 	lea    0x284(%rip),%rdi        # b88 <_IO_stdin_used+0x8>
 904:	e8 37 fe ff ff       	callq  740 <puts@plt>
 909:	b8 01 00 00 00       	mov    $0x1,%eax
 90e:	e9 ca 00 00 00       	jmpq   9dd <main+0x113>
 913:	48 8b 45 c8          	mov    -0x38(%rbp),%rax
 917:	48 89 45 d0          	mov    %rax,-0x30(%rbp)
 91b:	48 8b 45 d0          	mov    -0x30(%rbp),%rax
 91f:	48 83 c0 60          	add    $0x60,%rax
 923:	48 89 45 d8          	mov    %rax,-0x28(%rbp)
 927:	c7 45 c4 09 02 00 00 	movl   $0x209,-0x3c(%rbp)
 92e:	eb 2d                	jmp    95d <main+0x93>
 930:	f2 0f 2a 45 c4       	cvtsi2sdl -0x3c(%rbp),%xmm0
 935:	8b 45 c4             	mov    -0x3c(%rbp),%eax
 938:	48 98                	cltq   
 93a:	48 8d 14 c5 00 00 00 	lea    0x0(,%rax,8),%rdx
 941:	00 
 942:	48 8b 45 c8          	mov    -0x38(%rbp),%rax
 946:	48 01 d0             	add    %rdx,%rax
 949:	f2 0f 10 0d 77 02 00 	movsd  0x277(%rip),%xmm1        # bc8 <_IO_stdin_used+0x48>
 950:	00 
 951:	f2 0f 59 c1          	mulsd  %xmm1,%xmm0
 955:	f2 0f 11 00          	movsd  %xmm0,(%rax)
 959:	83 45 c4 01          	addl   $0x1,-0x3c(%rbp)
 95d:	81 7d c4 e9 07 00 00 	cmpl   $0x7e9,-0x3c(%rbp)
 964:	7e ca                	jle    930 <main+0x66>
 966:	48 8b 45 d8          	mov    -0x28(%rbp),%rax
 96a:	48 89 45 e8          	mov    %rax,-0x18(%rbp)
 96e:	48 8b 45 d0          	mov    -0x30(%rbp),%rax
 972:	48 89 45 e0          	mov    %rax,-0x20(%rbp)
 976:	48 8d 45 e0          	lea    -0x20(%rbp),%rax
 97a:	b9 00 00 00 00       	mov    $0x0,%ecx
 97f:	ba 00 00 00 00       	mov    $0x0,%edx
 984:	48 89 c6             	mov    %rax,%rsi
 987:	48 8d 3d 65 00 00 00 	lea    0x65(%rip),%rdi        # 9f3 <main._omp_fn.0>
 98e:	e8 0d fe ff ff       	callq  7a0 <GOMP_parallel@plt>
 993:	48 8b 45 d8          	mov    -0x28(%rbp),%rax
 997:	48 05 28 28 00 00    	add    $0x2828,%rax
 99d:	f2 0f 10 00          	movsd  (%rax),%xmm0
 9a1:	48 8b 45 d0          	mov    -0x30(%rbp),%rax
 9a5:	48 05 38 1f 00 00    	add    $0x1f38,%rax
 9ab:	48 8b 00             	mov    (%rax),%rax
 9ae:	66 0f 28 c8          	movapd %xmm0,%xmm1
 9b2:	48 89 45 a8          	mov    %rax,-0x58(%rbp)
 9b6:	f2 0f 10 45 a8       	movsd  -0x58(%rbp),%xmm0
 9bb:	48 8d 3d e6 01 00 00 	lea    0x1e6(%rip),%rdi        # ba8 <_IO_stdin_used+0x28>
 9c2:	b8 02 00 00 00       	mov    $0x2,%eax
 9c7:	e8 a4 fd ff ff       	callq  770 <printf@plt>
 9cc:	48 8b 45 c8          	mov    -0x38(%rbp),%rax
 9d0:	48 89 c7             	mov    %rax,%rdi
 9d3:	e8 58 fd ff ff       	callq  730 <free@plt>
 9d8:	b8 00 00 00 00       	mov    $0x0,%eax
 9dd:	48 8b 4d f8          	mov    -0x8(%rbp),%rcx
 9e1:	64 48 33 0c 25 28 00 	xor    %fs:0x28,%rcx
 9e8:	00 00 
 9ea:	74 05                	je     9f1 <main+0x127>
 9ec:	e8 6f fd ff ff       	callq  760 <__stack_chk_fail@plt>
 9f1:	c9                   	leaveq 
 9f2:	c3                   	retq   

00000000000009f3 <main._omp_fn.0>:
 9f3:	55                   	push   %rbp
 9f4:	48 89 e5             	mov    %rsp,%rbp
 9f7:	53                   	push   %rbx
 9f8:	48 83 ec 38          	sub    $0x38,%rsp
 9fc:	48 89 7d c8          	mov    %rdi,-0x38(%rbp)
 a00:	48 8b 45 c8          	mov    -0x38(%rbp),%rax
 a04:	48 8b 40 08          	mov    0x8(%rax),%rax
 a08:	48 89 45 e0          	mov    %rax,-0x20(%rbp)
 a0c:	48 8b 45 c8          	mov    -0x38(%rbp),%rax
 a10:	48 8b 00             	mov    (%rax),%rax
 a13:	48 89 45 e8          	mov    %rax,-0x18(%rbp)
 a17:	e8 64 fd ff ff       	callq  780 <omp_get_num_threads@plt>
 a1c:	89 c3                	mov    %eax,%ebx
 a1e:	e8 2d fd ff ff       	callq  750 <omp_get_thread_num@plt>
 a23:	89 c6                	mov    %eax,%esi
 a25:	ba 00 00 00 00       	mov    $0x0,%edx
 a2a:	89 d0                	mov    %edx,%eax
 a2c:	0f af c3             	imul   %ebx,%eax
 a2f:	01 f0                	add    %esi,%eax
 a31:	8d 48 01             	lea    0x1(%rax),%ecx
 a34:	81 f9 b4 00 00 00    	cmp    $0xb4,%ecx
 a3a:	3d b4 00 00 00       	cmp    $0xb4,%eax
 a3f:	0f 8d b3 00 00 00    	jge    af8 <main._omp_fn.0+0x105>
 a45:	89 45 d8             	mov    %eax,-0x28(%rbp)
 a48:	8b 45 d8             	mov    -0x28(%rbp),%eax
 a4b:	48 98                	cltq   
 a4d:	48 8d 0c 85 00 00 00 	lea    0x0(,%rax,4),%rcx
 a54:	00 
 a55:	48 8d 05 c4 05 20 00 	lea    0x2005c4(%rip),%rax        # 201020 <indexSet>
 a5c:	8b 04 01             	mov    (%rcx,%rax,1),%eax
 a5f:	89 45 dc             	mov    %eax,-0x24(%rbp)
 a62:	8b 45 dc             	mov    -0x24(%rbp),%eax
 a65:	48 98                	cltq   
 a67:	48 8d 0c c5 00 00 00 	lea    0x0(,%rax,8),%rcx
 a6e:	00 
 a6f:	48 8b 45 e8          	mov    -0x18(%rbp),%rax
 a73:	48 01 c8             	add    %rcx,%rax
 a76:	f2 0f 10 08          	movsd  (%rax),%xmm1
 a7a:	f2 0f 2a 45 d8       	cvtsi2sdl -0x28(%rbp),%xmm0
 a7f:	f2 0f 10 15 49 01 00 	movsd  0x149(%rip),%xmm2        # bd0 <_IO_stdin_used+0x50>
 a86:	00 
 a87:	f2 0f 58 c2          	addsd  %xmm2,%xmm0
 a8b:	8b 45 dc             	mov    -0x24(%rbp),%eax
 a8e:	48 98                	cltq   
 a90:	48 8d 0c c5 00 00 00 	lea    0x0(,%rax,8),%rcx
 a97:	00 
 a98:	48 8b 45 e8          	mov    -0x18(%rbp),%rax
 a9c:	48 01 c8             	add    %rcx,%rax
 a9f:	f2 0f 58 c1          	addsd  %xmm1,%xmm0
 aa3:	f2 0f 11 00          	movsd  %xmm0,(%rax)
 aa7:	8b 45 dc             	mov    -0x24(%rbp),%eax
 aaa:	48 98                	cltq   
 aac:	48 8d 0c c5 00 00 00 	lea    0x0(,%rax,8),%rcx
 ab3:	00 
 ab4:	48 8b 45 e0          	mov    -0x20(%rbp),%rax
 ab8:	48 01 c8             	add    %rcx,%rax
 abb:	f2 0f 10 08          	movsd  (%rax),%xmm1
 abf:	f2 0f 2a 45 d8       	cvtsi2sdl -0x28(%rbp),%xmm0
 ac4:	f2 0f 10 15 0c 01 00 	movsd  0x10c(%rip),%xmm2        # bd8 <_IO_stdin_used+0x58>
 acb:	00 
 acc:	f2 0f 58 c2          	addsd  %xmm2,%xmm0
 ad0:	8b 45 dc             	mov    -0x24(%rbp),%eax
 ad3:	48 98                	cltq   
 ad5:	48 8d 0c c5 00 00 00 	lea    0x0(,%rax,8),%rcx
 adc:	00 
 add:	48 8b 45 e0          	mov    -0x20(%rbp),%rax
 ae1:	48 01 c8             	add    %rcx,%rax
 ae4:	f2 0f 58 c1          	addsd  %xmm1,%xmm0
 ae8:	f2 0f 11 00          	movsd  %xmm0,(%rax)
 aec:	83 45 d8 01          	addl   $0x1,-0x28(%rbp)
 af0:	83 c2 01             	add    $0x1,%edx
 af3:	e9 32 ff ff ff       	jmpq   a2a <main._omp_fn.0+0x37>
 af8:	48 83 c4 38          	add    $0x38,%rsp
 afc:	5b                   	pop    %rbx
 afd:	5d                   	pop    %rbp
 afe:	c3                   	retq   
 aff:	90                   	nop

0000000000000b00 <__libc_csu_init>:
 b00:	41 57                	push   %r15
 b02:	41 56                	push   %r14
 b04:	49 89 d7             	mov    %rdx,%r15
 b07:	41 55                	push   %r13
 b09:	41 54                	push   %r12
 b0b:	4c 8d 25 5e 02 20 00 	lea    0x20025e(%rip),%r12        # 200d70 <__frame_dummy_init_array_entry>
 b12:	55                   	push   %rbp
 b13:	48 8d 2d 5e 02 20 00 	lea    0x20025e(%rip),%rbp        # 200d78 <__init_array_end>
 b1a:	53                   	push   %rbx
 b1b:	41 89 fd             	mov    %edi,%r13d
 b1e:	49 89 f6             	mov    %rsi,%r14
 b21:	4c 29 e5             	sub    %r12,%rbp
 b24:	48 83 ec 08          	sub    $0x8,%rsp
 b28:	48 c1 fd 03          	sar    $0x3,%rbp
 b2c:	e8 d7 fb ff ff       	callq  708 <_init>
 b31:	48 85 ed             	test   %rbp,%rbp
 b34:	74 20                	je     b56 <__libc_csu_init+0x56>
 b36:	31 db                	xor    %ebx,%ebx
 b38:	0f 1f 84 00 00 00 00 	nopl   0x0(%rax,%rax,1)
 b3f:	00 
 b40:	4c 89 fa             	mov    %r15,%rdx
 b43:	4c 89 f6             	mov    %r14,%rsi
 b46:	44 89 ef             	mov    %r13d,%edi
 b49:	41 ff 14 dc          	callq  *(%r12,%rbx,8)
 b4d:	48 83 c3 01          	add    $0x1,%rbx
 b51:	48 39 dd             	cmp    %rbx,%rbp
 b54:	75 ea                	jne    b40 <__libc_csu_init+0x40>
 b56:	48 83 c4 08          	add    $0x8,%rsp
 b5a:	5b                   	pop    %rbx
 b5b:	5d                   	pop    %rbp
 b5c:	41 5c                	pop    %r12
 b5e:	41 5d                	pop    %r13
 b60:	41 5e                	pop    %r14
 b62:	41 5f                	pop    %r15
 b64:	c3                   	retq   
 b65:	90                   	nop
 b66:	66 2e 0f 1f 84 00 00 	nopw   %cs:0x0(%rax,%rax,1)
 b6d:	00 00 00 

0000000000000b70 <__libc_csu_fini>:
 b70:	f3 c3                	repz retq 

Disassembly of section .fini:

0000000000000b74 <_fini>:
 b74:	48 83 ec 08          	sub    $0x8,%rsp
 b78:	48 83 c4 08          	add    $0x8,%rsp
 b7c:	c3                   	retq   
